target datalayout = "e-m:e-p270:32:32-p271:32:32-p272:64:64-i64:64-f80:128-n8:16:32:64-S128"
target triple = "x86_64-pc-linux-gnu"

%struct.w = type { i32, i32, i32, i32, %struct.w*, %struct.w* }

@k = dso_local global i32 1, align 4
@s = dso_local global i32 0, align 4
@head = common dso_local global %struct.w* null, align 8
@.str = private unnamed_addr constant [3 x i8] c"%d\00", align 1
@n = common dso_local global i32 0, align 4
@p2 = common dso_local global %struct.w* null, align 8
@p1 = common dso_local global %struct.w* null, align 8
@.str.1 = private unnamed_addr constant [9 x i8] c"%d %d %d\00", align 1
@max = common dso_local global i32 0, align 4
@i = common dso_local global i32 0, align 4
@.str.2 = private unnamed_addr constant [7 x i8] c"%d %d\0A\00", align 1

; Function Attrs: noinline nounwind uwtable
define dso_local %struct.w* @make() #0 {
  store %struct.w* null, %struct.w** @head, align 8
  %1 = call i32 (i8*, ...) @__isoc99_scanf(i8* getelementptr inbounds ([3 x i8], [3 x i8]* @.str, i64 0, i64 0), i32* @n)
  %2 = call noalias i8* @malloc(i64 100) #3
  %3 = bitcast i8* %2 to %struct.w*
  store %struct.w* %3, %struct.w** @p2, align 8
  store %struct.w* %3, %struct.w** @p1, align 8
  %4 = load %struct.w*, %struct.w** @p1, align 8
  %5 = getelementptr inbounds %struct.w, %struct.w* %4, i32 0, i32 0
  %6 = load %struct.w*, %struct.w** @p1, align 8
  %7 = getelementptr inbounds %struct.w, %struct.w* %6, i32 0, i32 1
  %8 = load %struct.w*, %struct.w** @p1, align 8
  %9 = getelementptr inbounds %struct.w, %struct.w* %8, i32 0, i32 2
  %10 = call i32 (i8*, ...) @__isoc99_scanf(i8* getelementptr inbounds ([9 x i8], [9 x i8]* @.str.1, i64 0, i64 0), i32* %5, i32* %7, i32* %9)
  store i32 1, i32* @k, align 4
  br label %11

11:                                               ; preds = %40, %0
  %12 = load i32, i32* @k, align 4
  %13 = load i32, i32* @n, align 4
  %14 = icmp slt i32 %12, %13
  br i1 %14, label %15, label %43

15:                                               ; preds = %11
  %16 = load i32, i32* @k, align 4
  %17 = icmp eq i32 %16, 1
  br i1 %17, label %18, label %22

18:                                               ; preds = %15
  %19 = load %struct.w*, %struct.w** @p1, align 8
  store %struct.w* %19, %struct.w** @head, align 8
  %20 = load %struct.w*, %struct.w** @p1, align 8
  %21 = getelementptr inbounds %struct.w, %struct.w* %20, i32 0, i32 5
  store %struct.w* null, %struct.w** %21, align 8
  br label %29

22:                                               ; preds = %15
  %23 = load %struct.w*, %struct.w** @p1, align 8
  %24 = load %struct.w*, %struct.w** @p2, align 8
  %25 = getelementptr inbounds %struct.w, %struct.w* %24, i32 0, i32 4
  store %struct.w* %23, %struct.w** %25, align 8
  %26 = load %struct.w*, %struct.w** @p2, align 8
  %27 = load %struct.w*, %struct.w** @p1, align 8
  %28 = getelementptr inbounds %struct.w, %struct.w* %27, i32 0, i32 5
  store %struct.w* %26, %struct.w** %28, align 8
  br label %29

29:                                               ; preds = %22, %18
  %30 = load %struct.w*, %struct.w** @p1, align 8
  store %struct.w* %30, %struct.w** @p2, align 8
  %31 = call noalias i8* @malloc(i64 100) #3
  %32 = bitcast i8* %31 to %struct.w*
  store %struct.w* %32, %struct.w** @p1, align 8
  %33 = load %struct.w*, %struct.w** @p1, align 8
  %34 = getelementptr inbounds %struct.w, %struct.w* %33, i32 0, i32 0
  %35 = load %struct.w*, %struct.w** @p1, align 8
  %36 = getelementptr inbounds %struct.w, %struct.w* %35, i32 0, i32 1
  %37 = load %struct.w*, %struct.w** @p1, align 8
  %38 = getelementptr inbounds %struct.w, %struct.w* %37, i32 0, i32 2
  %39 = call i32 (i8*, ...) @__isoc99_scanf(i8* getelementptr inbounds ([9 x i8], [9 x i8]* @.str.1, i64 0, i64 0), i32* %34, i32* %36, i32* %38)
  br label %40

40:                                               ; preds = %29
  %41 = load i32, i32* @k, align 4
  %42 = add nsw i32 %41, 1
  store i32 %42, i32* @k, align 4
  br label %11

43:                                               ; preds = %11
  %44 = load %struct.w*, %struct.w** @p1, align 8
  %45 = load %struct.w*, %struct.w** @p2, align 8
  %46 = getelementptr inbounds %struct.w, %struct.w* %45, i32 0, i32 4
  store %struct.w* %44, %struct.w** %46, align 8
  %47 = load %struct.w*, %struct.w** @head, align 8
  %48 = load %struct.w*, %struct.w** @p1, align 8
  %49 = getelementptr inbounds %struct.w, %struct.w* %48, i32 0, i32 4
  store %struct.w* %47, %struct.w** %49, align 8
  %50 = load %struct.w*, %struct.w** @head, align 8
  ret %struct.w* %50
}

; Function Attrs: noinline nounwind uwtable
define dso_local void @main() #0 {
  %1 = call %struct.w* @make()
  store %struct.w* %1, %struct.w** @head, align 8
  store i32 0, i32* @max, align 4
  br label %2

2:                                                ; preds = %106, %0
  %3 = load i32, i32* @s, align 4
  %4 = icmp slt i32 %3, 3
  br i1 %4, label %5, label %109

5:                                                ; preds = %2
  store i32 0, i32* @max, align 4
  store i32 1, i32* @i, align 4
  br label %6

6:                                                ; preds = %29, %5
  %7 = load i32, i32* @i, align 4
  %8 = load i32, i32* @n, align 4
  %9 = icmp sle i32 %7, %8
  br i1 %9, label %10, label %32

10:                                               ; preds = %6
  %11 = load i32, i32* @i, align 4
  %12 = load i32, i32* @n, align 4
  %13 = icmp eq i32 %11, %12
  br i1 %13, label %14, label %15

14:                                               ; preds = %10
  store %struct.w* null, %struct.w** @p1, align 8
  br label %28

15:                                               ; preds = %10
  %16 = load %struct.w*, %struct.w** @p1, align 8
  %17 = getelementptr inbounds %struct.w, %struct.w* %16, i32 0, i32 1
  %18 = load i32, i32* %17, align 4
  %19 = load %struct.w*, %struct.w** @p1, align 8
  %20 = getelementptr inbounds %struct.w, %struct.w* %19, i32 0, i32 2
  %21 = load i32, i32* %20, align 8
  %22 = add nsw i32 %18, %21
  %23 = load %struct.w*, %struct.w** @p1, align 8
  %24 = getelementptr inbounds %struct.w, %struct.w* %23, i32 0, i32 3
  store i32 %22, i32* %24, align 4
  %25 = load %struct.w*, %struct.w** @p1, align 8
  %26 = getelementptr inbounds %struct.w, %struct.w* %25, i32 0, i32 4
  %27 = load %struct.w*, %struct.w** %26, align 8
  store %struct.w* %27, %struct.w** @p1, align 8
  br label %28

28:                                               ; preds = %15, %14
  br label %29

29:                                               ; preds = %28
  %30 = load i32, i32* @i, align 4
  %31 = add nsw i32 %30, 1
  store i32 %31, i32* @i, align 4
  br label %6

32:                                               ; preds = %6
  %33 = load %struct.w*, %struct.w** @head, align 8
  store %struct.w* %33, %struct.w** @p1, align 8
  store i32 1, i32* @i, align 4
  br label %34

34:                                               ; preds = %52, %32
  %35 = load i32, i32* @i, align 4
  %36 = load i32, i32* @n, align 4
  %37 = icmp sle i32 %35, %36
  br i1 %37, label %38, label %55

38:                                               ; preds = %34
  %39 = load %struct.w*, %struct.w** @p1, align 8
  %40 = getelementptr inbounds %struct.w, %struct.w* %39, i32 0, i32 3
  %41 = load i32, i32* %40, align 4
  %42 = load i32, i32* @max, align 4
  %43 = icmp sgt i32 %41, %42
  br i1 %43, label %44, label %48

44:                                               ; preds = %38
  %45 = load %struct.w*, %struct.w** @p1, align 8
  %46 = getelementptr inbounds %struct.w, %struct.w* %45, i32 0, i32 3
  %47 = load i32, i32* %46, align 4
  store i32 %47, i32* @max, align 4
  br label %48

48:                                               ; preds = %44, %38
  %49 = load %struct.w*, %struct.w** @p1, align 8
  %50 = getelementptr inbounds %struct.w, %struct.w* %49, i32 0, i32 4
  %51 = load %struct.w*, %struct.w** %50, align 8
  store %struct.w* %51, %struct.w** @p1, align 8
  br label %52

52:                                               ; preds = %48
  %53 = load i32, i32* @i, align 4
  %54 = add nsw i32 %53, 1
  store i32 %54, i32* @i, align 4
  br label %34

55:                                               ; preds = %34
  %56 = load %struct.w*, %struct.w** @head, align 8
  store %struct.w* %56, %struct.w** @p1, align 8
  store i32 1, i32* @i, align 4
  br label %57

57:                                               ; preds = %103, %55
  %58 = load i32, i32* @i, align 4
  %59 = load i32, i32* @n, align 4
  %60 = icmp sle i32 %58, %59
  br i1 %60, label %61, label %106

61:                                               ; preds = %57
  %62 = load %struct.w*, %struct.w** @p1, align 8
  store %struct.w* %62, %struct.w** @p2, align 8
  %63 = load %struct.w*, %struct.w** @p1, align 8
  %64 = getelementptr inbounds %struct.w, %struct.w* %63, i32 0, i32 4
  %65 = load %struct.w*, %struct.w** %64, align 8
  store %struct.w* %65, %struct.w** @p1, align 8
  %66 = load %struct.w*, %struct.w** @p2, align 8
  %67 = getelementptr inbounds %struct.w, %struct.w* %66, i32 0, i32 1
  %68 = load i32, i32* %67, align 4
  %69 = load %struct.w*, %struct.w** @p2, align 8
  %70 = getelementptr inbounds %struct.w, %struct.w* %69, i32 0, i32 2
  %71 = load i32, i32* %70, align 8
  %72 = add nsw i32 %68, %71
  %73 = load i32, i32* @max, align 4
  %74 = icmp eq i32 %72, %73
  br i1 %74, label %75, label %102

75:                                               ; preds = %61
  %76 = load %struct.w*, %struct.w** @p2, align 8
  %77 = getelementptr inbounds %struct.w, %struct.w* %76, i32 0, i32 0
  %78 = load i32, i32* %77, align 8
  %79 = load %struct.w*, %struct.w** @p2, align 8
  %80 = getelementptr inbounds %struct.w, %struct.w* %79, i32 0, i32 3
  %81 = load i32, i32* %80, align 4
  %82 = call i32 (i8*, ...) @printf(i8* getelementptr inbounds ([7 x i8], [7 x i8]* @.str.2, i64 0, i64 0), i32 %78, i32 %81)
  %83 = load %struct.w*, %struct.w** @p2, align 8
  %84 = load %struct.w*, %struct.w** @head, align 8
  %85 = icmp eq %struct.w* %83, %84
  br i1 %85, label %86, label %91

86:                                               ; preds = %75
  %87 = load %struct.w*, %struct.w** @p2, align 8
  %88 = getelementptr inbounds %struct.w, %struct.w* %87, i32 0, i32 4
  %89 = load %struct.w*, %struct.w** %88, align 8
  store %struct.w* %89, %struct.w** @head, align 8
  %90 = load %struct.w*, %struct.w** @head, align 8
  store %struct.w* %90, %struct.w** @p2, align 8
  br label %101

91:                                               ; preds = %75
  %92 = load %struct.w*, %struct.w** @p2, align 8
  %93 = getelementptr inbounds %struct.w, %struct.w* %92, i32 0, i32 5
  %94 = load %struct.w*, %struct.w** %93, align 8
  store %struct.w* %94, %struct.w** @p2, align 8
  %95 = load %struct.w*, %struct.w** @p1, align 8
  %96 = getelementptr inbounds %struct.w, %struct.w* %95, i32 0, i32 4
  %97 = load %struct.w*, %struct.w** %96, align 8
  store %struct.w* %97, %struct.w** @p1, align 8
  %98 = load %struct.w*, %struct.w** @p1, align 8
  %99 = load %struct.w*, %struct.w** @p2, align 8
  %100 = getelementptr inbounds %struct.w, %struct.w* %99, i32 0, i32 4
  store %struct.w* %98, %struct.w** %100, align 8
  br label %101

101:                                              ; preds = %91, %86
  br label %106

102:                                              ; preds = %61
  br label %103

103:                                              ; preds = %102
  %104 = load i32, i32* @i, align 4
  %105 = add nsw i32 %104, 1
  store i32 %105, i32* @i, align 4
  br label %57

106:                                              ; preds = %101, %57
  %107 = load i32, i32* @s, align 4
  %108 = add nsw i32 %107, 1
  store i32 %108, i32* @s, align 4
  br label %2

109:                                              ; preds = %2
  ret void
}